; Function Attrs: nounwind uwtable
define ptr @l_Array_mapFinIdxM_map___at_Lean_Elab_PartialFixpoint_deriveInduction___spec__12___lambda__2(ptr noundef %0, i64 noundef %1, ptr noundef %2, ptr noundef %3, ptr noundef %4, ptr noundef %5, ptr noundef %6, ptr noundef %7, ptr noundef %8, ptr noundef %9, ptr noundef %10, ptr noundef %11, ptr noundef %12, ptr noundef %13) local_unnamed_addr #0 {
  %15 = getelementptr i8, ptr %8, i64 8
  %.val37 = load i64, ptr %15, align 8, !tbaa !11
  %16 = shl i64 %.val37, 1
  %17 = or disjoint i64 %16, 1
  %18 = inttoptr i64 %17 to ptr
  %19 = and i64 %.val37, 9223372036854775807
  %20 = shl i64 %.val37, 3
  %21 = add i64 %20, 24
  %22 = tail call ptr @lean_alloc_object(i64 noundef %21) #6
  store i32 1, ptr %22, align 4, !tbaa !4
  %23 = getelementptr inbounds nuw i8, ptr %22, i64 4
  %24 = load i32, ptr %23, align 4
  %25 = and i32 %24, 65535
  %26 = or disjoint i32 %25, -167772160
  store i32 %26, ptr %23, align 4
  %27 = getelementptr inbounds nuw i8, ptr %22, i64 8
  store i64 0, ptr %27, align 8, !tbaa !11
  %28 = getelementptr inbounds nuw i8, ptr %22, i64 16
  store i64 %19, ptr %28, align 8, !tbaa !11
  %29 = tail call ptr @l_Array_mapFinIdxM_map___at_Lean_Elab_PartialFixpoint_deriveInduction___spec__9(ptr noundef %0, ptr poison, ptr noundef %8, ptr noundef nonnull %18, ptr noundef nonnull inttoptr (i64 1 to ptr), ptr nonnull poison, ptr noundef nonnull %22)
  %30 = getelementptr i8, ptr %29, i64 8
  %.val = load i64, ptr %30, align 8, !tbaa !11
  %31 = tail call ptr @l_Array_mapMUnsafe_map___at_Lean_Elab_PartialFixpoint_deriveInduction___spec__10(i64 noundef %.val, i64 noundef %1, ptr noundef %29)
  tail call void @lean_inc_heartbeat() #6
  %32 = tail call noalias ptr @mi_malloc_small(i64 noundef 16) #6
  %33 = icmp eq ptr %32, null
  br i1 %33, label %34, label %lean_box_usize.exit

34:                                               ; preds = %14
  tail call void @lean_internal_panic_out_of_memory() #7
  unreachable

lean_box_usize.exit:                              ; preds = %14
  %35 = getelementptr inbounds nuw i8, ptr %32, i64 4
  store i32 1, ptr %32, align 4, !tbaa !4
  store i32 16, ptr %35, align 4
  %36 = getelementptr inbounds nuw i8, ptr %32, i64 8
  store i64 %1, ptr %36, align 8, !tbaa !11
  tail call void @lean_inc_heartbeat() #6
  %37 = tail call noalias ptr @mi_malloc_small(i64 noundef 88) #6
  %38 = icmp eq ptr %37, null
  br i1 %38, label %39, label %lean_alloc_closure.exit

39:                                               ; preds = %lean_box_usize.exit
  tail call void @lean_internal_panic_out_of_memory() #7
  unreachable

lean_alloc_closure.exit:                          ; preds = %lean_box_usize.exit
  %40 = getelementptr inbounds nuw i8, ptr %37, i64 4
  store i32 1, ptr %37, align 4, !tbaa !4
  store i32 -184549288, ptr %40, align 4
  %41 = getelementptr inbounds nuw i8, ptr %37, i64 8
  store ptr @l_Array_mapFinIdxM_map___at_Lean_Elab_PartialFixpoint_deriveInduction___spec__12___lambda__1___boxed, ptr %41, align 8, !tbaa !9
  %42 = getelementptr inbounds nuw i8, ptr %37, i64 16
  store i16 14, ptr %42, align 8, !tbaa !15
  %43 = getelementptr inbounds nuw i8, ptr %37, i64 18
  store i16 8, ptr %43, align 2, !tbaa !15
  %44 = getelementptr inbounds nuw i8, ptr %37, i64 24
  store ptr %2, ptr %44, align 8, !tbaa !9
  %45 = getelementptr inbounds nuw i8, ptr %37, i64 32
  store ptr %8, ptr %45, align 8, !tbaa !9
  %46 = getelementptr inbounds nuw i8, ptr %37, i64 40
  store ptr %3, ptr %46, align 8, !tbaa !9
  %47 = getelementptr inbounds nuw i8, ptr %37, i64 48
  store ptr %4, ptr %47, align 8, !tbaa !9
  %48 = getelementptr inbounds nuw i8, ptr %37, i64 56
  store ptr %5, ptr %48, align 8, !tbaa !9
  %49 = getelementptr inbounds nuw i8, ptr %37, i64 64
  store ptr %6, ptr %49, align 8, !tbaa !9
  %50 = getelementptr inbounds nuw i8, ptr %37, i64 72
  store ptr %0, ptr %50, align 8, !tbaa !9
  %51 = getelementptr inbounds nuw i8, ptr %37, i64 80
  store ptr %32, ptr %51, align 8, !tbaa !9
  %52 = tail call ptr @l_Lean_Meta_withLocalDeclsDND___at_Lean_Meta_Match_genMatchCongrEqns_go___spec__4___rarg(ptr noundef %7, ptr noundef %31, ptr noundef nonnull %37, ptr noundef %9, ptr noundef %10, ptr noundef %11, ptr noundef %12, ptr noundef %13) #6
  ret ptr %52
}